; Function Attrs: mustprogress uwtable
define void @_ZN7xgboost4Json4DumpES0_PNS_10JsonWriterE(ptr noundef readonly captures(none) %0, ptr noundef %1) local_unnamed_addr #3 align 2 personality ptr @__gxx_personality_v0 {
  %3 = alloca %"class.xgboost::Json", align 8
  %4 = load ptr, ptr %0, align 8, !tbaa !173
  store ptr %4, ptr %3, align 8, !tbaa !173
  %.not.i.i.i = icmp eq ptr %4, null
  br i1 %.not.i.i.i, label %_ZN7xgboost4JsonC2ERKS0_.exit, label %5

5:                                                ; preds = %2
  %6 = getelementptr inbounds nuw i8, ptr %4, i64 8
  %7 = atomicrmw add ptr %6, i32 1 monotonic, align 4
  br label %_ZN7xgboost4JsonC2ERKS0_.exit

_ZN7xgboost4JsonC2ERKS0_.exit:                    ; preds = %2, %5
  %8 = load ptr, ptr %1, align 8, !tbaa !13
  %9 = getelementptr inbounds nuw i8, ptr %8, i64 16
  %10 = load ptr, ptr %9, align 8
  invoke void %10(ptr noundef nonnull align 8 dereferenceable(16) %1, ptr noundef nonnull %3)
          to label %11 unwind label %21

11:                                               ; preds = %_ZN7xgboost4JsonC2ERKS0_.exit
  %12 = load ptr, ptr %3, align 8, !tbaa !173
  %.not.i.i.i2 = icmp eq ptr %12, null
  br i1 %.not.i.i.i2, label %_ZN7xgboost4JsonD2Ev.exit, label %13

13:                                               ; preds = %11
  %14 = getelementptr inbounds nuw i8, ptr %12, i64 8
  %15 = atomicrmw sub ptr %14, i32 1 release, align 4
  %16 = icmp eq i32 %15, 1
  br i1 %16, label %17, label %_ZN7xgboost4JsonD2Ev.exit

17:                                               ; preds = %13
  fence acquire
  %18 = load ptr, ptr %12, align 8, !tbaa !13
  %19 = getelementptr inbounds nuw i8, ptr %18, i64 8
  %20 = load ptr, ptr %19, align 8
  call void %20(ptr noundef nonnull align 8 dereferenceable(24) %12) #18
  br label %_ZN7xgboost4JsonD2Ev.exit

_ZN7xgboost4JsonD2Ev.exit:                        ; preds = %11, %13, %17
  ret void

21:                                               ; preds = %_ZN7xgboost4JsonC2ERKS0_.exit
  %22 = landingpad { ptr, i32 }
          cleanup
  %23 = load ptr, ptr %3, align 8, !tbaa !173
  %.not.i.i.i3 = icmp eq ptr %23, null
  br i1 %.not.i.i.i3, label %_ZN7xgboost4JsonD2Ev.exit4, label %24

24:                                               ; preds = %21
  %25 = getelementptr inbounds nuw i8, ptr %23, i64 8
  %26 = atomicrmw sub ptr %25, i32 1 release, align 4
  %27 = icmp eq i32 %26, 1
  br i1 %27, label %28, label %_ZN7xgboost4JsonD2Ev.exit4

28:                                               ; preds = %24
  fence acquire
  %29 = load ptr, ptr %23, align 8, !tbaa !13
  %30 = getelementptr inbounds nuw i8, ptr %29, i64 8
  %31 = load ptr, ptr %30, align 8
  call void %31(ptr noundef nonnull align 8 dereferenceable(24) %23) #18
  br label %_ZN7xgboost4JsonD2Ev.exit4

_ZN7xgboost4JsonD2Ev.exit4:                       ; preds = %21, %24, %28
  resume { ptr, i32 } %22
}